; ModuleID = '58/706.c'
source_filename = "58/706.c"
target datalayout = "e-m:e-p270:32:32-p271:32:32-p272:64:64-i64:64-f80:128-n8:16:32:64-S128"
target triple = "x86_64-pc-linux-gnu"

@.str = private unnamed_addr constant [3 x i8] c"%d\00", align 1
@.str.1 = private unnamed_addr constant [3 x i8] c"0\0A\00", align 1
@.str.2 = private unnamed_addr constant [3 x i8] c"1\0A\00", align 1

; Function Attrs: noinline nounwind uwtable
define dso_local i32 @main() #0 {
  %1 = alloca i32, align 4
  %2 = alloca i32, align 4
  %3 = alloca i32, align 4
  %4 = alloca i32, align 4
  %5 = alloca [200 x [85 x i8]], align 16
  store i32 0, i32* %1, align 4
  store i32 1, i32* %4, align 4
  %6 = call i32 (i8*, ...) @__isoc99_scanf(i8* getelementptr inbounds ([3 x i8], [3 x i8]* @.str, i64 0, i64 0), i32* %2)
  %7 = getelementptr inbounds [200 x [85 x i8]], [200 x [85 x i8]]* %5, i64 0, i64 0
  %8 = getelementptr inbounds [85 x i8], [85 x i8]* %7, i64 0, i64 0
  %9 = call i32 (i8*, ...) bitcast (i32 (...)* @gets to i32 (i8*, ...)*)(i8* %8)
  br label %10

10:                                               ; preds = %155, %0
  %11 = load i32, i32* %2, align 4
  %12 = icmp sgt i32 %11, 0
  br i1 %12, label %13, label %158

13:                                               ; preds = %10
  store i32 1, i32* %4, align 4
  %14 = load i32, i32* %2, align 4
  %15 = sext i32 %14 to i64
  %16 = getelementptr inbounds [200 x [85 x i8]], [200 x [85 x i8]]* %5, i64 0, i64 %15
  %17 = getelementptr inbounds [85 x i8], [85 x i8]* %16, i64 0, i64 0
  %18 = call i32 (i8*, ...) bitcast (i32 (...)* @gets to i32 (i8*, ...)*)(i8* %17)
  %19 = load i32, i32* %2, align 4
  %20 = sext i32 %19 to i64
  %21 = getelementptr inbounds [200 x [85 x i8]], [200 x [85 x i8]]* %5, i64 0, i64 %20
  %22 = getelementptr inbounds [85 x i8], [85 x i8]* %21, i64 0, i64 0
  %23 = load i8, i8* %22, align 1
  %24 = sext i8 %23 to i32
  %25 = icmp eq i32 %24, 95
  br i1 %25, label %58, label %26

26:                                               ; preds = %13
  %27 = load i32, i32* %2, align 4
  %28 = sext i32 %27 to i64
  %29 = getelementptr inbounds [200 x [85 x i8]], [200 x [85 x i8]]* %5, i64 0, i64 %28
  %30 = getelementptr inbounds [85 x i8], [85 x i8]* %29, i64 0, i64 0
  %31 = load i8, i8* %30, align 1
  %32 = sext i8 %31 to i32
  %33 = icmp slt i32 %32, 123
  br i1 %33, label %34, label %42

34:                                               ; preds = %26
  %35 = load i32, i32* %2, align 4
  %36 = sext i32 %35 to i64
  %37 = getelementptr inbounds [200 x [85 x i8]], [200 x [85 x i8]]* %5, i64 0, i64 %36
  %38 = getelementptr inbounds [85 x i8], [85 x i8]* %37, i64 0, i64 0
  %39 = load i8, i8* %38, align 1
  %40 = sext i8 %39 to i32
  %41 = icmp sgt i32 %40, 96
  br i1 %41, label %58, label %42

42:                                               ; preds = %34, %26
  %43 = load i32, i32* %2, align 4
  %44 = sext i32 %43 to i64
  %45 = getelementptr inbounds [200 x [85 x i8]], [200 x [85 x i8]]* %5, i64 0, i64 %44
  %46 = getelementptr inbounds [85 x i8], [85 x i8]* %45, i64 0, i64 0
  %47 = load i8, i8* %46, align 1
  %48 = sext i8 %47 to i32
  %49 = icmp slt i32 %48, 91
  br i1 %49, label %50, label %59

50:                                               ; preds = %42
  %51 = load i32, i32* %2, align 4
  %52 = sext i32 %51 to i64
  %53 = getelementptr inbounds [200 x [85 x i8]], [200 x [85 x i8]]* %5, i64 0, i64 %52
  %54 = getelementptr inbounds [85 x i8], [85 x i8]* %53, i64 0, i64 0
  %55 = load i8, i8* %54, align 1
  %56 = sext i8 %55 to i32
  %57 = icmp sgt i32 %56, 64
  br i1 %57, label %58, label %59

58:                                               ; preds = %50, %34, %13
  br label %61

59:                                               ; preds = %50, %42
  %60 = call i32 (i8*, ...) @printf(i8* getelementptr inbounds ([3 x i8], [3 x i8]* @.str.1, i64 0, i64 0))
  br label %155

61:                                               ; preds = %58
  store i32 1, i32* %3, align 4
  br label %62

62:                                               ; preds = %146, %61
  %63 = load i32, i32* %2, align 4
  %64 = sext i32 %63 to i64
  %65 = getelementptr inbounds [200 x [85 x i8]], [200 x [85 x i8]]* %5, i64 0, i64 %64
  %66 = load i32, i32* %3, align 4
  %67 = sext i32 %66 to i64
  %68 = getelementptr inbounds [85 x i8], [85 x i8]* %65, i64 0, i64 %67
  %69 = load i8, i8* %68, align 1
  %70 = sext i8 %69 to i32
  %71 = icmp ne i32 %70, 0
  br i1 %71, label %72, label %149

72:                                               ; preds = %62
  %73 = load i32, i32* %2, align 4
  %74 = sext i32 %73 to i64
  %75 = getelementptr inbounds [200 x [85 x i8]], [200 x [85 x i8]]* %5, i64 0, i64 %74
  %76 = load i32, i32* %3, align 4
  %77 = sext i32 %76 to i64
  %78 = getelementptr inbounds [85 x i8], [85 x i8]* %75, i64 0, i64 %77
  %79 = load i8, i8* %78, align 1
  %80 = sext i8 %79 to i32
  %81 = icmp eq i32 %80, 95
  br i1 %81, label %142, label %82

82:                                               ; preds = %72
  %83 = load i32, i32* %2, align 4
  %84 = sext i32 %83 to i64
  %85 = getelementptr inbounds [200 x [85 x i8]], [200 x [85 x i8]]* %5, i64 0, i64 %84
  %86 = load i32, i32* %3, align 4
  %87 = sext i32 %86 to i64
  %88 = getelementptr inbounds [85 x i8], [85 x i8]* %85, i64 0, i64 %87
  %89 = load i8, i8* %88, align 1
  %90 = sext i8 %89 to i32
  %91 = icmp slt i32 %90, 123
  br i1 %91, label %92, label %102

92:                                               ; preds = %82
  %93 = load i32, i32* %2, align 4
  %94 = sext i32 %93 to i64
  %95 = getelementptr inbounds [200 x [85 x i8]], [200 x [85 x i8]]* %5, i64 0, i64 %94
  %96 = load i32, i32* %3, align 4
  %97 = sext i32 %96 to i64
  %98 = getelementptr inbounds [85 x i8], [85 x i8]* %95, i64 0, i64 %97
  %99 = load i8, i8* %98, align 1
  %100 = sext i8 %99 to i32
  %101 = icmp sgt i32 %100, 96
  br i1 %101, label %142, label %102

102:                                              ; preds = %92, %82
  %103 = load i32, i32* %2, align 4
  %104 = sext i32 %103 to i64
  %105 = getelementptr inbounds [200 x [85 x i8]], [200 x [85 x i8]]* %5, i64 0, i64 %104
  %106 = load i32, i32* %3, align 4
  %107 = sext i32 %106 to i64
  %108 = getelementptr inbounds [85 x i8], [85 x i8]* %105, i64 0, i64 %107
  %109 = load i8, i8* %108, align 1
  %110 = sext i8 %109 to i32
  %111 = icmp slt i32 %110, 91
  br i1 %111, label %112, label %122

112:                                              ; preds = %102
  %113 = load i32, i32* %2, align 4
  %114 = sext i32 %113 to i64
  %115 = getelementptr inbounds [200 x [85 x i8]], [200 x [85 x i8]]* %5, i64 0, i64 %114
  %116 = load i32, i32* %3, align 4
  %117 = sext i32 %116 to i64
  %118 = getelementptr inbounds [85 x i8], [85 x i8]* %115, i64 0, i64 %117
  %119 = load i8, i8* %118, align 1
  %120 = sext i8 %119 to i32
  %121 = icmp sgt i32 %120, 64
  br i1 %121, label %142, label %122

122:                                              ; preds = %112, %102
  %123 = load i32, i32* %2, align 4
  %124 = sext i32 %123 to i64
  %125 = getelementptr inbounds [200 x [85 x i8]], [200 x [85 x i8]]* %5, i64 0, i64 %124
  %126 = load i32, i32* %3, align 4
  %127 = sext i32 %126 to i64
  %128 = getelementptr inbounds [85 x i8], [85 x i8]* %125, i64 0, i64 %127
  %129 = load i8, i8* %128, align 1
  %130 = sext i8 %129 to i32
  %131 = icmp slt i32 %130, 58
  br i1 %131, label %132, label %143

132:                                              ; preds = %122
  %133 = load i32, i32* %2, align 4
  %134 = sext i32 %133 to i64
  %135 = getelementptr inbounds [200 x [85 x i8]], [200 x [85 x i8]]* %5, i64 0, i64 %134
  %136 = load i32, i32* %3, align 4
  %137 = sext i32 %136 to i64
  %138 = getelementptr inbounds [85 x i8], [85 x i8]* %135, i64 0, i64 %137
  %139 = load i8, i8* %138, align 1
  %140 = sext i8 %139 to i32
  %141 = icmp sgt i32 %140, 47
  br i1 %141, label %142, label %143

142:                                              ; preds = %132, %112, %92, %72
  br label %145

143:                                              ; preds = %132, %122
  %144 = call i32 (i8*, ...) @printf(i8* getelementptr inbounds ([3 x i8], [3 x i8]* @.str.1, i64 0, i64 0))
  store i32 0, i32* %4, align 4
  br label %149

145:                                              ; preds = %142
  br label %146

146:                                              ; preds = %145
  %147 = load i32, i32* %3, align 4
  %148 = add nsw i32 %147, 1
  store i32 %148, i32* %3, align 4
  br label %62

149:                                              ; preds = %143, %62
  %150 = load i32, i32* %4, align 4
  %151 = icmp ne i32 %150, 0
  br i1 %151, label %152, label %154

152:                                              ; preds = %149
  %153 = call i32 (i8*, ...) @printf(i8* getelementptr inbounds ([3 x i8], [3 x i8]* @.str.2, i64 0, i64 0))
  br label %154

154:                                              ; preds = %152, %149
  br label %155

155:                                              ; preds = %154, %59
  %156 = load i32, i32* %2, align 4
  %157 = add nsw i32 %156, -1
  store i32 %157, i32* %2, align 4
  br label %10

158:                                              ; preds = %10
  ret i32 0
}

declare dso_local i32 @__isoc99_scanf(i8*, ...) #1

declare dso_local i32 @gets(...) #1

declare dso_local i32 @printf(i8*, ...) #1


!llvm.module.flags = !{!0}
!llvm.ident = !{!1}

!0 = !{i32 1, !"wchar_size", i32 4}
!1 = !{!"clang version 10.0.0-4ubuntu1 "}
